target datalayout = "e-m:e-p270:32:32-p271:32:32-p272:64:64-i64:64-i128:128-f80:128-n8:16:32:64-S128"
target triple = "x86_64-pc-linux-gnu"

%class.VNType = type { i16 }
%class.AstNode = type { ptr, ptr, ptr, ptr, ptr, ptr, ptr, ptr, %class.VNType, %struct.anon, i8, i32, ptr, ptr, ptr, ptr, %class.VNUser, i32, i32, %class.VNUser, %class.VNUser, i32, i32, %class.VNUser }
%struct.anon = type { i8 }
%class.VNUser = type { %union.anon.3 }
%union.anon.3 = type { ptr }

@_ZN7AstNode12s_editCntGblE = dso_local global i64 0, align 8
@.str.575 = private unnamed_addr constant [14 x i8] c"-addNextThs: \00", align 1
@.str.576 = private unnamed_addr constant [14 x i8] c"-addNextNew: \00", align 1
@.str.577 = private unnamed_addr constant [13 x i8] c"-addNextOut:\00", align 1

; Function Attrs: mustprogress nounwind uwtable
define linkonce_odr dso_local void @_ZN7AstNode12editCountIncEv(ptr noundef nonnull align 8 dereferenceable(152) %0) #5 comdat align 2 {
  %2 = alloca ptr, align 8
  store ptr %0, ptr %2, align 8
  %3 = load i64, ptr @_ZN7AstNode12s_editCntGblE, align 8
  %4 = add i64 %3, 1
  store i64 %4, ptr @_ZN7AstNode12s_editCntGblE, align 8
  ret void
}

; Function Attrs: mustprogress nounwind uwtable
define dso_local void @_ZN7AstNode15debugTreeChangeEPKS_PKcib(ptr noundef %0, ptr noundef %1, i32 noundef %2, i1 noundef zeroext %3) #5 align 2 {
  %5 = alloca ptr, align 8
  %6 = alloca ptr, align 8
  %7 = alloca i32, align 4
  %8 = alloca i8, align 1
  store ptr %0, ptr %5, align 8
  store ptr %1, ptr %6, align 8
  store i32 %2, ptr %7, align 4
  %9 = zext i1 %3 to i8
  store i8 %9, ptr %8, align 1
  ret void
}

; Function Attrs: mustprogress uwtable
define dso_local noundef ptr @_ZN7AstNode7addNextIS_S_EEPT_S2_PT0_(ptr noundef %0, ptr noundef %1) #4 align 2 {
  %3 = alloca ptr, align 8
  %4 = alloca ptr, align 8
  %5 = alloca ptr, align 8
  %6 = alloca ptr, align 8
  %7 = alloca ptr, align 8
  %8 = alloca ptr, align 8
  store ptr %0, ptr %4, align 8
  store ptr %1, ptr %5, align 8
  br label %9

9:                                                ; preds = %2
  br label %10

10:                                               ; preds = %9
  %11 = load ptr, ptr %4, align 8
  call void @_ZN7AstNode15debugTreeChangeEPKS_PKcib(ptr noundef %11, ptr noundef @.str.575, i32 noundef 331, i1 noundef zeroext false)
  %12 = load ptr, ptr %5, align 8
  call void @_ZN7AstNode15debugTreeChangeEPKS_PKcib(ptr noundef %12, ptr noundef @.str.576, i32 noundef 332, i1 noundef zeroext true)
  %13 = load ptr, ptr %4, align 8
  %14 = icmp ne ptr %13, null
  br i1 %14, label %17, label %15

15:                                               ; preds = %10
  %16 = load ptr, ptr %5, align 8
  store ptr %16, ptr %3, align 8
  br label %73

17:                                               ; preds = %10
  %18 = load ptr, ptr %4, align 8
  store ptr %18, ptr %6, align 8
  %19 = load ptr, ptr %6, align 8
  %20 = getelementptr inbounds %class.AstNode, ptr %19, i32 0, i32 1
  %21 = load ptr, ptr %20, align 8
  %22 = icmp ne ptr %21, null
  br i1 %22, label %23, label %46

23:                                               ; preds = %17
  %24 = load ptr, ptr %6, align 8
  %25 = getelementptr inbounds %class.AstNode, ptr %24, i32 0, i32 13
  %26 = load ptr, ptr %25, align 8
  %27 = icmp ne ptr %26, null
  br i1 %27, label %28, label %34

28:                                               ; preds = %23
  %29 = load ptr, ptr %6, align 8
  %30 = getelementptr inbounds %class.AstNode, ptr %29, i32 0, i32 13
  %31 = load ptr, ptr %30, align 8
  store ptr %31, ptr %6, align 8
  br label %32

32:                                               ; preds = %28
  br label %33

33:                                               ; preds = %32
  br label %45

34:                                               ; preds = %23
  br label %35

35:                                               ; preds = %40, %34
  %36 = load ptr, ptr %6, align 8
  %37 = getelementptr inbounds %class.AstNode, ptr %36, i32 0, i32 1
  %38 = load ptr, ptr %37, align 8
  %39 = icmp ne ptr %38, null
  br i1 %39, label %40, label %44

40:                                               ; preds = %35
  %41 = load ptr, ptr %6, align 8
  %42 = getelementptr inbounds %class.AstNode, ptr %41, i32 0, i32 1
  %43 = load ptr, ptr %42, align 8
  store ptr %43, ptr %6, align 8
  br label %35, !llvm.loop !13

44:                                               ; preds = %35
  br label %45

45:                                               ; preds = %44, %33
  br label %46

46:                                               ; preds = %45, %17
  %47 = load ptr, ptr %5, align 8
  %48 = load ptr, ptr %6, align 8
  %49 = getelementptr inbounds %class.AstNode, ptr %48, i32 0, i32 1
  store ptr %47, ptr %49, align 8
  %50 = load ptr, ptr %6, align 8
  %51 = load ptr, ptr %5, align 8
  %52 = getelementptr inbounds %class.AstNode, ptr %51, i32 0, i32 2
  store ptr %50, ptr %52, align 8
  %53 = load ptr, ptr %5, align 8
  %54 = getelementptr inbounds %class.AstNode, ptr %53, i32 0, i32 13
  %55 = load ptr, ptr %54, align 8
  store ptr %55, ptr %7, align 8
  %56 = load ptr, ptr %6, align 8
  %57 = getelementptr inbounds %class.AstNode, ptr %56, i32 0, i32 13
  %58 = load ptr, ptr %57, align 8
  store ptr %58, ptr %8, align 8
  %59 = load ptr, ptr %6, align 8
  %60 = getelementptr inbounds %class.AstNode, ptr %59, i32 0, i32 13
  store ptr null, ptr %60, align 8
  %61 = load ptr, ptr %5, align 8
  %62 = getelementptr inbounds %class.AstNode, ptr %61, i32 0, i32 13
  store ptr null, ptr %62, align 8
  %63 = load ptr, ptr %8, align 8
  %64 = load ptr, ptr %7, align 8
  %65 = getelementptr inbounds %class.AstNode, ptr %64, i32 0, i32 13
  store ptr %63, ptr %65, align 8
  %66 = load ptr, ptr %7, align 8
  %67 = load ptr, ptr %8, align 8
  %68 = getelementptr inbounds %class.AstNode, ptr %67, i32 0, i32 13
  store ptr %66, ptr %68, align 8
  %69 = load ptr, ptr %5, align 8
  call void @_ZN7AstNode12editCountIncEv(ptr noundef nonnull align 8 dereferenceable(152) %69)
  br label %70

70:                                               ; preds = %46
  %71 = load ptr, ptr %4, align 8
  call void @_ZN7AstNode15debugTreeChangeEPKS_PKcib(ptr noundef %71, ptr noundef @.str.577, i32 noundef 363, i1 noundef zeroext true)
  %72 = load ptr, ptr %4, align 8
  store ptr %72, ptr %3, align 8
  br label %73

73:                                               ; preds = %70, %15
  %74 = load ptr, ptr %3, align 8
  ret ptr %74
}