; Function Attrs: mustprogress nofree norecurse nosync nounwind memory(readwrite, inaccessiblemem: none) uwtable
define dso_local noundef ptr @_ZN7AstNode7addNextIS_S_EEPT_S2_PT0_(ptr noundef %0, ptr noundef %1) local_unnamed_addr #10 align 2 {
  %.not = icmp eq ptr %0, null
  br i1 %.not, label %21, label %3

3:                                                ; preds = %2
  %4 = getelementptr inbounds i8, ptr %0, i64 8
  %5 = load ptr, ptr %4, align 8
  %.not30 = icmp eq ptr %5, null
  br i1 %.not30, label %.loopexit, label %6

6:                                                ; preds = %3
  %7 = getelementptr inbounds i8, ptr %0, i64 80
  %8 = load ptr, ptr %7, align 8
  %.not31 = icmp eq ptr %8, null
  br i1 %.not31, label %.preheader, label %.loopexit

.preheader:                                       ; preds = %6, %.preheader
  %.026 = phi ptr [ %10, %.preheader ], [ %0, %6 ]
  %9 = getelementptr inbounds i8, ptr %.026, i64 8
  %10 = load ptr, ptr %9, align 8
  %.not32 = icmp eq ptr %10, null
  br i1 %.not32, label %.loopexit, label %.preheader, !llvm.loop !25

.loopexit:                                        ; preds = %.preheader, %6, %3
  %.1 = phi ptr [ %0, %3 ], [ %8, %6 ], [ %.026, %.preheader ]
  %11 = getelementptr inbounds i8, ptr %.1, i64 8
  store ptr %1, ptr %11, align 8
  %12 = getelementptr inbounds i8, ptr %1, i64 16
  store ptr %.1, ptr %12, align 8
  %13 = getelementptr inbounds i8, ptr %1, i64 80
  %14 = load ptr, ptr %13, align 8
  %15 = getelementptr inbounds i8, ptr %.1, i64 80
  %16 = load ptr, ptr %15, align 8
  store ptr null, ptr %15, align 8
  store ptr null, ptr %13, align 8
  %17 = getelementptr inbounds i8, ptr %14, i64 80
  store ptr %16, ptr %17, align 8
  %18 = getelementptr inbounds i8, ptr %16, i64 80
  store ptr %14, ptr %18, align 8
  %19 = load i64, ptr @_ZN7AstNode12s_editCntGblE, align 8
  %20 = add i64 %19, 1
  store i64 %20, ptr @_ZN7AstNode12s_editCntGblE, align 8
  br label %21

21:                                               ; preds = %2, %.loopexit
  %.0 = phi ptr [ %0, %.loopexit ], [ %1, %2 ]
  ret ptr %.0
}